; Function Attrs: mustprogress null_pointer_is_valid sspstrong uwtable
define void @_ZN15RtpPlayerDialog19handleItemHighlightEP15QTreeWidgetItemb(ptr noundef align 8 captures(none) dereferenceable_or_null(472) %0, ptr noundef %1, i1 noundef zeroext %2) local_unnamed_addr #0 align 2 {
  %.not = icmp eq ptr %1, null
  %4 = getelementptr inbounds nuw i8, ptr %0, i64 360
  %5 = load ptr, ptr %4, align 8
  br i1 %.not, label %15, label %6

6:                                                ; preds = %3
  %.not9 = icmp eq ptr %1, %5
  br i1 %.not9, label %21, label %7

7:                                                ; preds = %6
  %.not10 = icmp eq ptr %5, null
  br i1 %.not10, label %9, label %8

8:                                                ; preds = %7
  tail call void @_ZN15RtpPlayerDialog13highlightItemEP15QTreeWidgetItemb(ptr noundef align 8 dereferenceable_or_null(472) %0, ptr noundef nonnull %5, i1 noundef zeroext false)
  br label %9

9:                                                ; preds = %8, %7
  tail call void @_ZN15RtpPlayerDialog13highlightItemEP15QTreeWidgetItemb(ptr noundef align 8 dereferenceable_or_null(472) %0, ptr noundef nonnull %1, i1 noundef zeroext true)
  br i1 %2, label %10, label %.sink.split

10:                                               ; preds = %9
  %11 = getelementptr inbounds nuw i8, ptr %0, i64 144
  %12 = load ptr, ptr %11, align 8
  %13 = getelementptr inbounds nuw i8, ptr %12, i64 320
  %14 = load ptr, ptr %13, align 8
  tail call void @_ZN11QTreeWidget12scrollToItemEPK15QTreeWidgetItemN17QAbstractItemView10ScrollHintE(ptr noundef align 8 dereferenceable_or_null(40) %14, ptr noundef nonnull %1, i32 noundef 0)
  br label %.sink.split

15:                                               ; preds = %3
  %.not8 = icmp eq ptr %5, null
  br i1 %.not8, label %21, label %16

16:                                               ; preds = %15
  tail call void @_ZN15RtpPlayerDialog13highlightItemEP15QTreeWidgetItemb(ptr noundef align 8 dereferenceable_or_null(472) %0, ptr noundef nonnull %5, i1 noundef zeroext false)
  br label %.sink.split

.sink.split:                                      ; preds = %9, %10, %16
  %.sink = phi ptr [ null, %16 ], [ %1, %10 ], [ %1, %9 ]
  %17 = getelementptr inbounds nuw i8, ptr %0, i64 144
  %18 = load ptr, ptr %17, align 8
  %19 = getelementptr inbounds nuw i8, ptr %18, i64 312
  %20 = load ptr, ptr %19, align 8
  tail call void @_ZN11QCustomPlot6replotENS_15RefreshPriorityE(ptr noundef align 8 dereferenceable_or_null(513) %20, i32 noundef 2)
  store ptr %.sink, ptr %4, align 8
  br label %21

21:                                               ; preds = %.sink.split, %15, %6
  ret void
}